Certificate:
    Data:
        Version: 3 (0x2)
        Serial Number: 2156 (0x86c)
        Signature Algorithm: sha256WithRSAEncryption
        Issuer: C=US, ST=Washington, L=Seattle, O=getaCert - www.getacert.com
        Validity
            Not Before: Jan 17 07:26:06 2017 GMT
            Not After : Jan 18 07:26:06 2027 GMT
        Subject: C=CA, ST=Ontario, L=Toronto, O=You Dont Know, OU=Officers, CN=www.youdontknow.ca/emailAddress=im.shovonhasan@gmail.com
        Subject Public Key Info:
            Public Key Algorithm: rsaEncryption
            RSA Public Key: (2048 bit)
                Modulus (2048 bit):
                    00:99:8d:07:3d:9e:07:3d:52:5b:ab:60:2d:0f:33:
                    74:1f:c6:9a:c2:02:4b:6b:6a:93:61:af:05:a5:c1:
                    24:7e:a1:ed:28:53:0e:05:51:2c:85:df:df:f2:27:
                    ba:ae:e6:f9:12:16:93:f3:d8:27:3a:cd:09:6f:9f:
                    75:d7:66:63:a8:09:75:2c:39:46:64:e5:04:db:f7:
                    ff:92:f8:3d:c1:e9:4f:e8:48:dd:a8:0e:41:00:fd:
                    35:49:f4:25:6e:6d:0a:f2:f5:c3:ff:28:fe:a4:51:
                    d4:a8:6a:bc:dc:bf:08:74:da:df:5f:16:93:f5:db:
                    f1:8b:c0:4e:aa:ef:10:67:e3:45:6f:76:83:22:59:
                    13:68:74:e3:af:6c:05:eb:3d:a0:02:f7:44:79:7b:
                    84:9f:4c:d7:0c:be:7b:64:86:be:fc:8f:19:fd:cd:
                    fb:90:57:1b:86:4f:8a:ce:52:70:ea:32:63:c0:66:
                    74:56:49:9d:ba:f5:c2:70:e0:40:de:55:60:47:2e:
                    87:05:57:62:43:a5:8c:eb:3b:d1:32:75:fa:3c:79:
                    fb:b9:37:c6:dd:ce:ed:20:ba:28:ac:d9:22:64:e8:
                    ec:3f:fd:23:f5:84:66:61:9a:f6:75:b3:b2:5d:45:
                    04:85:25:74:dd:78:81:e5:0f:aa:df:98:9b:a7:25:
                    ae:4f
                Exponent: 65537 (0x10001)
        X509v3 extensions:
            X509v3 Basic Constraints: 
                CA:FALSE
            Netscape Cert Type: 
                SSL Client, SSL Server, S/MIME, Object Signing
            X509v3 Key Usage: 
                Key Encipherment
    Signature Algorithm: sha256WithRSAEncryption
        52:4d:1d:53:04:ae:38:a8:07:9c:78:8b:bf:58:03:e0:c5:6d:
        89:8f:e1:59:b7:aa:87:85:9f:90:80:92:e9:98:cd:37:ed:17:
        00:5c:66:d7:cf:b0:01:78:6a:aa:e5:13:2b:4c:e1:0d:41:ad:
        0a:3c:0f:5e:37:ed:39:af:a4:ee:33:b8:77:8c:91:23:fe:13:
        4d:ae:d7:e5:85:ab:c5:8f:43:23:41:17:fa:ce:fa:94:3c:e6:
        bd:25:39:7e:9b:96:1a:a5:59:e5:99:dc:89:15:3a:3b:68:c3:
        d0:3e:78:83:41:ed:3b:7f:a6:48:c8:d8:06:62:a1:91:ae:13:
        0d:ba:3f:4f:18:4b:5f:e4:f1:73:1c:b6:7f:06:41:f0:13:99:
        c2:c8:42:98:ba:3c:63:40:f5:ee:71:51:81:5c:3f:8a:7f:d6:
        09:53:91:b4:e4:fb:8a:3a:42:3c:3a:73:51:00:7e:1e:5b:d4:
        a9:d4:33:aa:d8:4a:d2:bb:8c:3b:0a:32:20:d8:f7:d7:c6:40:
        a5:3a:3e:62:d7:7c:de:b9:86:ac:b2:13:d5:4e:ca:d7:f5:6d:
        22:0e:0d:81:64:54:36:a0:ed:40:f3:2a:7e:cc:2b:dc:cb:73:
        98:e8:55:d2:4f:73:43:33:be:f0:0f:ae:5a:f7:fc:2d:51:41:
        94:74:f7:22
-----BEGIN CERTIFICATE-----
MIIDpjCCAo6gAwIBAgICCGwwDQYJKoZIhvcNAQELBQAwWjELMAkGA1UEBhMCVVMx
EzARBgNVBAgTCldhc2hpbmd0b24xEDAOBgNVBAcTB1NlYXR0bGUxJDAiBgNVBAoT
G2dldGFDZXJ0IC0gd3d3LmdldGFjZXJ0LmNvbTAeFw0xNzAxMTcwNzI2MDZaFw0y
NzAxMTgwNzI2MDZaMIGiMQswCQYDVQQGEwJDQTEQMA4GA1UECAwHT250YXJpbzEQ
MA4GA1UEBwwHVG9yb250bzEWMBQGA1UECgwNWW91IERvbnQgS25vdzERMA8GA1UE
CwwIT2ZmaWNlcnMxGzAZBgNVBAMMEnd3dy55b3Vkb250a25vdy5jYTEnMCUGCSqG
SIb3DQEJARYYaW0uc2hvdm9uaGFzYW5AZ21haWwuY29tMIIBIjANBgkqhkiG9w0B
AQEFAAOCAQ8AMIIBCgKCAQEAmY0HPZ4HPVJbq2AtDzN0H8aawgJLa2qTYa8FpcEk
fqHtKFMOBVEshd/f8ie6rub5EhaT89gnOs0Jb59112ZjqAl1LDlGZOUE2/f/kvg9
welP6EjdqA5BAP01SfQlbm0K8vXD/yj+pFHUqGq83L8IdNrfXxaT9dvxi8BOqu8Q
Z+NFb3aDIlkTaHTjr2wF6z2gAvdEeXuEn0zXDL57ZIa+/I8Z/c37kFcbhk+KzlJw
6jJjwGZ0VkmduvXCcOBA3lVgRy6HBVdiQ6WM6zvRMnX6PHn7uTfG3c7tILoorNki
ZOjsP/0j9YRmYZr2dbOyXUUEhSV03XiB5Q+q35ibpyWuTwIDAQABoy0wKzAJBgNV
HRMEAjAAMBEGCWCGSAGG+EIBAQQEAwIE8DALBgNVHQ8EBAMCBSAwDQYJKoZIhvcN
AQELBQADggEBAFJNHVMErjioB5x4i79YA+DFbYmP4Vm3qoeFn5CAkumYzTftFwBc
ZtfPsAF4aqrlEytM4Q1BrQo8D1437TmvpO4zuHeMkSP+E02u1+WFq8WPQyNBF/rO
+pQ85r0lOX6blhqlWeWZ3IkVOjtow9A+eINB7Tt/pkjI2AZioZGuEw26P08YS1/k
8XMctn8GQfATmcLIQpi6PGNA9e5xUYFcP4p/1glTkbTk+4o6Qjw6c1EAfh5b1KnU
M6rYStK7jDsKMiDY99fGQKU6PmLXfN65hqyyE9VOytf1bSIODYFkVDag7UDzKn7M
K9zLc5joVdJPc0MzvvAPrlr3/C1RQZR09yI=
-----END CERTIFICATE-----
